target datalayout = "e-m:e-p270:32:32-p271:32:32-p272:64:64-i64:64-i128:128-f80:128-n8:16:32:64-S128"
target triple = "x86_64-pc-linux-gnu"

%"class.icu_77::number::impl::DecimalQuantity" = type <{ %"class.icu_77::IFixedDecimal", i8, [3 x i8], i32, i32, i8, i8, [2 x i8], double, i32, i32, i32, i32, %union.anon, i8, i8, [6 x i8] }>
%"class.icu_77::IFixedDecimal" = type { ptr }
%union.anon = type { %struct.anon }
%struct.anon = type { ptr, i32 }

; Function Attrs: mustprogress nounwind uwtable
define noundef signext i8 @_ZNK6icu_776number4impl15DecimalQuantity11getDigitPosEi(ptr noundef nonnull align 8 dereferenceable(66) %0, i32 noundef %1) #0 align 2 {
  %3 = alloca i8, align 1
  %4 = alloca ptr, align 8
  %5 = alloca i32, align 4
  store ptr %0, ptr %4, align 8, !tbaa !25
  store i32 %1, ptr %5, align 4, !tbaa !14
  %6 = load ptr, ptr %4, align 8
  %7 = getelementptr inbounds nuw %"class.icu_77::number::impl::DecimalQuantity", ptr %6, i32 0, i32 14
  %8 = load i8, ptr %7, align 8, !tbaa !37, !range !40, !noundef !41
  %9 = trunc i8 %8 to i1
  br i1 %9, label %10, label %27

10:                                               ; preds = %2
  %11 = load i32, ptr %5, align 4, !tbaa !14
  %12 = icmp slt i32 %11, 0
  br i1 %12, label %18, label %13

13:                                               ; preds = %10
  %14 = load i32, ptr %5, align 4, !tbaa !14
  %15 = getelementptr inbounds nuw %"class.icu_77::number::impl::DecimalQuantity", ptr %6, i32 0, i32 4
  %16 = load i32, ptr %15, align 8, !tbaa !44
  %17 = icmp sge i32 %14, %16
  br i1 %17, label %18, label %19

18:                                               ; preds = %13, %10
  store i8 0, ptr %3, align 1
  br label %43

19:                                               ; preds = %13
  %20 = getelementptr inbounds nuw %"class.icu_77::number::impl::DecimalQuantity", ptr %6, i32 0, i32 13
  %21 = getelementptr inbounds nuw %struct.anon, ptr %20, i32 0, i32 0
  %22 = load ptr, ptr %21, align 8, !tbaa !42
  %23 = load i32, ptr %5, align 4, !tbaa !14
  %24 = sext i32 %23 to i64
  %25 = getelementptr inbounds i8, ptr %22, i64 %24
  %26 = load i8, ptr %25, align 1, !tbaa !42
  store i8 %26, ptr %3, align 1
  br label %43

27:                                               ; preds = %2
  %28 = load i32, ptr %5, align 4, !tbaa !14
  %29 = icmp slt i32 %28, 0
  br i1 %29, label %33, label %30

30:                                               ; preds = %27
  %31 = load i32, ptr %5, align 4, !tbaa !14
  %32 = icmp sge i32 %31, 16
  br i1 %32, label %33, label %34

33:                                               ; preds = %30, %27
  store i8 0, ptr %3, align 1
  br label %43

34:                                               ; preds = %30
  %35 = getelementptr inbounds nuw %"class.icu_77::number::impl::DecimalQuantity", ptr %6, i32 0, i32 13
  %36 = load i64, ptr %35, align 8, !tbaa !42
  %37 = load i32, ptr %5, align 4, !tbaa !14
  %38 = mul nsw i32 %37, 4
  %39 = zext i32 %38 to i64
  %40 = lshr i64 %36, %39
  %41 = and i64 %40, 15
  %42 = trunc i64 %41 to i8
  store i8 %42, ptr %3, align 1
  br label %43

43:                                               ; preds = %34, %33, %19, %18
  %44 = load i8, ptr %3, align 1
  ret i8 %44
}