; Function Attrs: mustprogress nofree norecurse nosync nounwind willreturn memory(read, inaccessiblemem: none) uwtable
define noundef signext i8 @_ZNK6icu_776number4impl15DecimalQuantity11getDigitPosEi(ptr noundef nonnull readonly align 8 captures(none) dereferenceable(66) %0, i32 noundef %1) local_unnamed_addr #18 align 2 {
  %3 = getelementptr inbounds nuw i8, ptr %0, i64 64
  %4 = load i8, ptr %3, align 8, !tbaa !22, !range !24, !noundef !25
  %5 = trunc nuw i8 %4 to i1
  br i1 %5, label %6, label %16

6:                                                ; preds = %2
  %7 = icmp sgt i32 %1, -1
  %8 = getelementptr inbounds nuw i8, ptr %0, i64 16
  %9 = load i32, ptr %8, align 8
  %.not = icmp slt i32 %1, %9
  %or.cond10 = select i1 %7, i1 %.not, i1 false
  br i1 %or.cond10, label %10, label %25

10:                                               ; preds = %6
  %11 = getelementptr inbounds nuw i8, ptr %0, i64 48
  %12 = load ptr, ptr %11, align 8, !tbaa !26
  %13 = zext nneg i32 %1 to i64
  %14 = getelementptr inbounds nuw i8, ptr %12, i64 %13
  %15 = load i8, ptr %14, align 1, !tbaa !26
  br label %25

16:                                               ; preds = %2
  %or.cond = icmp ugt i32 %1, 15
  br i1 %or.cond, label %25, label %17

17:                                               ; preds = %16
  %18 = getelementptr inbounds nuw i8, ptr %0, i64 48
  %19 = load i64, ptr %18, align 8, !tbaa !26
  %20 = shl nuw nsw i32 %1, 2
  %21 = zext nneg i32 %20 to i64
  %22 = lshr i64 %19, %21
  %23 = trunc i64 %22 to i8
  %24 = and i8 %23, 15
  br label %25

25:                                               ; preds = %16, %6, %17, %10
  %.0 = phi i8 [ %15, %10 ], [ %24, %17 ], [ 0, %6 ], [ 0, %16 ]
  ret i8 %.0
}